target datalayout = "e-m:e-p270:32:32-p271:32:32-p272:64:64-i64:64-i128:128-f80:128-n8:16:32:64-S128"
target triple = "x86_64-unknown-linux-gnu"

%"class.icu_75::PluralFormat" = type { %"class.icu_75::Format.base", [6 x i8], %"class.icu_75::Locale", %"class.icu_75::MessagePattern", ptr, double, %"class.icu_75::PluralFormat::PluralSelectorAdapter" }
%"class.icu_75::Format.base" = type <{ %"class.icu_75::UObject", [157 x i8], [157 x i8] }>
%"class.icu_75::UObject" = type { ptr }
%"class.icu_75::Locale" = type <{ %"class.icu_75::UObject", [12 x i8], [6 x i8], [4 x i8], [2 x i8], i32, [4 x i8], ptr, [157 x i8], [3 x i8], ptr, i8, [7 x i8] }>
%"class.icu_75::MessagePattern" = type <{ %"class.icu_75::UObject", i32, [4 x i8], %"class.icu_75::UnicodeString", ptr, ptr, i32, [4 x i8], ptr, ptr, i32, i8, i8, i8, i8 }>
%"class.icu_75::UnicodeString" = type { %"class.icu_75::Replaceable", %"union.icu_75::UnicodeString::StackBufferOrFields" }
%"class.icu_75::Replaceable" = type { %"class.icu_75::UObject" }
%"union.icu_75::UnicodeString::StackBufferOrFields" = type { %struct.anon.0, [32 x i8] }
%struct.anon.0 = type { i16, i32, i32, ptr }
%"class.icu_75::PluralFormat::PluralSelectorAdapter" = type { %"class.icu_75::PluralFormat::PluralSelector", ptr }
%"class.icu_75::PluralFormat::PluralSelector" = type { ptr }

; Function Attrs: mustprogress nounwind uwtable
define internal noundef signext i8 @_ZL9U_FAILURE10UErrorCode(i32 noundef %code) #0 {
entry:
  %code.addr = alloca i32, align 4
  store i32 %code, ptr %code.addr, align 4
  %0 = load i32, ptr %code.addr, align 4
  %cmp = icmp sgt i32 %0, 0
  %conv = zext i1 %cmp to i8
  ret i8 %conv
}

; Function Attrs: mustprogress uwtable
define void @_ZN6icu_7512PluralFormat15setNumberFormatEPKNS_12NumberFormatER10UErrorCode(ptr noundef nonnull align 8 dereferenceable(712) %this, ptr noundef %format, ptr noundef nonnull align 4 dereferenceable(4) %status) #1 align 2 {
entry:
  %this.addr = alloca ptr, align 8
  %format.addr = alloca ptr, align 8
  %status.addr = alloca ptr, align 8
  %nf = alloca ptr, align 8
  store ptr %this, ptr %this.addr, align 8
  store ptr %format, ptr %format.addr, align 8
  store ptr %status, ptr %status.addr, align 8
  %this1 = load ptr, ptr %this.addr, align 8
  %0 = load ptr, ptr %status.addr, align 8
  %1 = load i32, ptr %0, align 4
  %call = call noundef signext i8 @_ZL9U_FAILURE10UErrorCode(i32 noundef %1)
  %tobool = icmp ne i8 %call, 0
  br i1 %tobool, label %if.then, label %if.end

if.then:                                          ; preds = %entry
  br label %if.end7

if.end:                                           ; preds = %entry
  %2 = load ptr, ptr %format.addr, align 8
  %vtable = load ptr, ptr %2, align 8
  %vfn = getelementptr inbounds ptr, ptr %vtable, i64 4
  %3 = load ptr, ptr %vfn, align 8
  %call2 = call noundef ptr %3(ptr noundef nonnull align 8 dereferenceable(356) %2)
  store ptr %call2, ptr %nf, align 8
  %4 = load ptr, ptr %nf, align 8
  %cmp = icmp ne ptr %4, null
  br i1 %cmp, label %if.then3, label %if.else

if.then3:                                         ; preds = %if.end
  %numberFormat = getelementptr inbounds %"class.icu_75::PluralFormat", ptr %this1, i32 0, i32 4
  %5 = load ptr, ptr %numberFormat, align 8
  %isnull = icmp eq ptr %5, null
  br i1 %isnull, label %delete.end, label %delete.notnull

delete.notnull:                                   ; preds = %if.then3
  %vtable4 = load ptr, ptr %5, align 8
  %vfn5 = getelementptr inbounds ptr, ptr %vtable4, i64 1
  %6 = load ptr, ptr %vfn5, align 8
  call void %6(ptr noundef nonnull align 8 dereferenceable(356) %5) #10
  br label %delete.end

delete.end:                                       ; preds = %delete.notnull, %if.then3
  %7 = load ptr, ptr %nf, align 8
  %numberFormat6 = getelementptr inbounds %"class.icu_75::PluralFormat", ptr %this1, i32 0, i32 4
  store ptr %7, ptr %numberFormat6, align 8
  br label %if.end7

if.else:                                          ; preds = %if.end
  %8 = load ptr, ptr %status.addr, align 8
  store i32 7, ptr %8, align 4
  br label %if.end7

if.end7:                                          ; preds = %if.else, %delete.end, %if.then
  ret void
}