; Function Attrs: mustprogress uwtable
define void @_ZN6icu_7512PluralFormat15setNumberFormatEPKNS_12NumberFormatER10UErrorCode(ptr nocapture noundef nonnull align 8 dereferenceable(712) %this, ptr noundef %format, ptr nocapture noundef nonnull align 4 dereferenceable(4) %status) local_unnamed_addr #1 align 2 {
entry:
  %0 = load i32, ptr %status, align 4
  %cmp.i = icmp slt i32 %0, 1
  br i1 %cmp.i, label %if.end, label %if.end7

if.end:                                           ; preds = %entry
  %vtable = load ptr, ptr %format, align 8
  %vfn = getelementptr inbounds i8, ptr %vtable, i64 32
  %1 = load ptr, ptr %vfn, align 8
  %call2 = tail call noundef ptr %1(ptr noundef nonnull align 8 dereferenceable(356) %format)
  %cmp.not = icmp eq ptr %call2, null
  br i1 %cmp.not, label %if.else, label %if.then3

if.then3:                                         ; preds = %if.end
  %numberFormat = getelementptr inbounds i8, ptr %this, i64 680
  %2 = load ptr, ptr %numberFormat, align 8
  %isnull = icmp eq ptr %2, null
  br i1 %isnull, label %delete.end, label %delete.notnull

delete.notnull:                                   ; preds = %if.then3
  %vtable4 = load ptr, ptr %2, align 8
  %vfn5 = getelementptr inbounds i8, ptr %vtable4, i64 8
  %3 = load ptr, ptr %vfn5, align 8
  tail call void %3(ptr noundef nonnull align 8 dereferenceable(356) %2) #15
  br label %delete.end

delete.end:                                       ; preds = %delete.notnull, %if.then3
  store ptr %call2, ptr %numberFormat, align 8
  br label %if.end7

if.else:                                          ; preds = %if.end
  store i32 7, ptr %status, align 4
  br label %if.end7

if.end7:                                          ; preds = %entry, %if.else, %delete.end
  ret void
}